; Function Attrs: nounwind uwtable
define internal void @tablet_tool_handle_proximity_in(ptr noundef initializes((24, 32)) %0, ptr readnone captures(none) %1, i32 %2, ptr readnone captures(none) %3, ptr noundef %4) #0 {
  %.not = icmp eq ptr %4, null
  br i1 %.not, label %.thread, label %6

6:                                                ; preds = %5
  %7 = tail call ptr @Wayland_GetWindowDataForOwnedSurface(ptr noundef nonnull %4) #12
  %.not11 = icmp eq ptr %7, null
  br i1 %.not11, label %.thread, label %8

8:                                                ; preds = %6
  %9 = load ptr, ptr %7, align 8
  br label %.thread

.thread:                                          ; preds = %5, %6, %8
  %10 = phi ptr [ %9, %8 ], [ null, %6 ], [ null, %5 ]
  %11 = getelementptr inbounds nuw i8, ptr %0, i64 24
  store ptr %10, ptr %11, align 8
  %12 = getelementptr inbounds nuw i8, ptr %0, i64 20
  %13 = load i32, ptr %12, align 4
  %.not12 = icmp eq i32 %13, 0
  br i1 %.not12, label %17, label %14

14:                                               ; preds = %.thread
  %15 = getelementptr inbounds nuw i8, ptr %0, i64 4
  %16 = tail call i32 @SDL_AddPenDevice(i64 noundef 0, ptr noundef null, ptr noundef nonnull %15, ptr noundef nonnull %0) #12
  store i32 %16, ptr %0, align 8
  br label %17

17:                                               ; preds = %14, %.thread
  ret void
}